#include <math.h>
#include <stdio.h>
#include <stdlib.h>
#include <string.h>

int main() 
{ 
int i,n,j,k; 
double a[1000],b[1000]; 
double c[1000],sum[100]={0}; 
scanf("%d",&n); 
a[0]=2; 
a[1]=3; 
b[1]=2; 
b[0]=1; 
for(i=2;i<1000;i++) 
{ 
a[i]=a[i-1]+a[i-2]; 
b[i]=a[i-1]; 
} 
for(i=0;i<1000;i++){ 
c[i]=a[i]/b[i]; 
} 
for(j=0;j<n;j++) 
{ 
sum[j]=0; 
scanf("%d",&k); 
for(i=0;i<k;i++) 
{ 
sum[j]=sum[j]+c[i]; 
} 
printf("%.3lf\n",sum[j]); 
} 
return 0; 
} 