; ModuleID = '29/318.c'
source_filename = "29/318.c"
target datalayout = "e-m:e-p270:32:32-p271:32:32-p272:64:64-i64:64-f80:128-n8:16:32:64-S128"
target triple = "x86_64-pc-linux-gnu"

@.str = private unnamed_addr constant [3 x i8] c"%d\00", align 1
@.str.1 = private unnamed_addr constant [7 x i8] c"%.3lf\0A\00", align 1

; Function Attrs: noinline nounwind uwtable
define dso_local i32 @main() #0 {
  %1 = alloca i32, align 4
  %2 = alloca i32, align 4
  %3 = alloca i32, align 4
  %4 = alloca i32, align 4
  %5 = alloca i32, align 4
  %6 = alloca [1000 x double], align 16
  %7 = alloca [1000 x double], align 16
  %8 = alloca [1000 x double], align 16
  %9 = alloca [100 x double], align 16
  store i32 0, i32* %1, align 4
  %10 = bitcast [100 x double]* %9 to i8*
  call void @llvm.memset.p0i8.i64(i8* align 16 %10, i8 0, i64 800, i1 false)
  %11 = call i32 (i8*, ...) @__isoc99_scanf(i8* getelementptr inbounds ([3 x i8], [3 x i8]* @.str, i64 0, i64 0), i32* %3)
  %12 = getelementptr inbounds [1000 x double], [1000 x double]* %6, i64 0, i64 0
  store double 2.000000e+00, double* %12, align 16
  %13 = getelementptr inbounds [1000 x double], [1000 x double]* %6, i64 0, i64 1
  store double 3.000000e+00, double* %13, align 8
  %14 = getelementptr inbounds [1000 x double], [1000 x double]* %7, i64 0, i64 1
  store double 2.000000e+00, double* %14, align 8
  %15 = getelementptr inbounds [1000 x double], [1000 x double]* %7, i64 0, i64 0
  store double 1.000000e+00, double* %15, align 16
  store i32 2, i32* %2, align 4
  br label %16

16:                                               ; preds = %42, %0
  %17 = load i32, i32* %2, align 4
  %18 = icmp slt i32 %17, 1000
  br i1 %18, label %19, label %45

19:                                               ; preds = %16
  %20 = load i32, i32* %2, align 4
  %21 = sub nsw i32 %20, 1
  %22 = sext i32 %21 to i64
  %23 = getelementptr inbounds [1000 x double], [1000 x double]* %6, i64 0, i64 %22
  %24 = load double, double* %23, align 8
  %25 = load i32, i32* %2, align 4
  %26 = sub nsw i32 %25, 2
  %27 = sext i32 %26 to i64
  %28 = getelementptr inbounds [1000 x double], [1000 x double]* %6, i64 0, i64 %27
  %29 = load double, double* %28, align 8
  %30 = fadd double %24, %29
  %31 = load i32, i32* %2, align 4
  %32 = sext i32 %31 to i64
  %33 = getelementptr inbounds [1000 x double], [1000 x double]* %6, i64 0, i64 %32
  store double %30, double* %33, align 8
  %34 = load i32, i32* %2, align 4
  %35 = sub nsw i32 %34, 1
  %36 = sext i32 %35 to i64
  %37 = getelementptr inbounds [1000 x double], [1000 x double]* %6, i64 0, i64 %36
  %38 = load double, double* %37, align 8
  %39 = load i32, i32* %2, align 4
  %40 = sext i32 %39 to i64
  %41 = getelementptr inbounds [1000 x double], [1000 x double]* %7, i64 0, i64 %40
  store double %38, double* %41, align 8
  br label %42

42:                                               ; preds = %19
  %43 = load i32, i32* %2, align 4
  %44 = add nsw i32 %43, 1
  store i32 %44, i32* %2, align 4
  br label %16

45:                                               ; preds = %16
  store i32 0, i32* %2, align 4
  br label %46

46:                                               ; preds = %62, %45
  %47 = load i32, i32* %2, align 4
  %48 = icmp slt i32 %47, 1000
  br i1 %48, label %49, label %65

49:                                               ; preds = %46
  %50 = load i32, i32* %2, align 4
  %51 = sext i32 %50 to i64
  %52 = getelementptr inbounds [1000 x double], [1000 x double]* %6, i64 0, i64 %51
  %53 = load double, double* %52, align 8
  %54 = load i32, i32* %2, align 4
  %55 = sext i32 %54 to i64
  %56 = getelementptr inbounds [1000 x double], [1000 x double]* %7, i64 0, i64 %55
  %57 = load double, double* %56, align 8
  %58 = fdiv double %53, %57
  %59 = load i32, i32* %2, align 4
  %60 = sext i32 %59 to i64
  %61 = getelementptr inbounds [1000 x double], [1000 x double]* %8, i64 0, i64 %60
  store double %58, double* %61, align 8
  br label %62

62:                                               ; preds = %49
  %63 = load i32, i32* %2, align 4
  %64 = add nsw i32 %63, 1
  store i32 %64, i32* %2, align 4
  br label %46

65:                                               ; preds = %46
  store i32 0, i32* %4, align 4
  br label %66

66:                                               ; preds = %101, %65
  %67 = load i32, i32* %4, align 4
  %68 = load i32, i32* %3, align 4
  %69 = icmp slt i32 %67, %68
  br i1 %69, label %70, label %104

70:                                               ; preds = %66
  %71 = load i32, i32* %4, align 4
  %72 = sext i32 %71 to i64
  %73 = getelementptr inbounds [100 x double], [100 x double]* %9, i64 0, i64 %72
  store double 0.000000e+00, double* %73, align 8
  %74 = call i32 (i8*, ...) @__isoc99_scanf(i8* getelementptr inbounds ([3 x i8], [3 x i8]* @.str, i64 0, i64 0), i32* %5)
  store i32 0, i32* %2, align 4
  br label %75

75:                                               ; preds = %92, %70
  %76 = load i32, i32* %2, align 4
  %77 = load i32, i32* %5, align 4
  %78 = icmp slt i32 %76, %77
  br i1 %78, label %79, label %95

79:                                               ; preds = %75
  %80 = load i32, i32* %4, align 4
  %81 = sext i32 %80 to i64
  %82 = getelementptr inbounds [100 x double], [100 x double]* %9, i64 0, i64 %81
  %83 = load double, double* %82, align 8
  %84 = load i32, i32* %2, align 4
  %85 = sext i32 %84 to i64
  %86 = getelementptr inbounds [1000 x double], [1000 x double]* %8, i64 0, i64 %85
  %87 = load double, double* %86, align 8
  %88 = fadd double %83, %87
  %89 = load i32, i32* %4, align 4
  %90 = sext i32 %89 to i64
  %91 = getelementptr inbounds [100 x double], [100 x double]* %9, i64 0, i64 %90
  store double %88, double* %91, align 8
  br label %92

92:                                               ; preds = %79
  %93 = load i32, i32* %2, align 4
  %94 = add nsw i32 %93, 1
  store i32 %94, i32* %2, align 4
  br label %75

95:                                               ; preds = %75
  %96 = load i32, i32* %4, align 4
  %97 = sext i32 %96 to i64
  %98 = getelementptr inbounds [100 x double], [100 x double]* %9, i64 0, i64 %97
  %99 = load double, double* %98, align 8
  %100 = call i32 (i8*, ...) @printf(i8* getelementptr inbounds ([7 x i8], [7 x i8]* @.str.1, i64 0, i64 0), double %99)
  br label %101

101:                                              ; preds = %95
  %102 = load i32, i32* %4, align 4
  %103 = add nsw i32 %102, 1
  store i32 %103, i32* %4, align 4
  br label %66

104:                                              ; preds = %66
  ret i32 0
}

; Function Attrs: argmemonly nounwind willreturn
declare void @llvm.memset.p0i8.i64(i8* nocapture writeonly, i8, i64, i1 immarg) #1

declare dso_local i32 @__isoc99_scanf(i8*, ...) #2

declare dso_local i32 @printf(i8*, ...) #2


!llvm.module.flags = !{!0}
!llvm.ident = !{!1}

!0 = !{i32 1, !"wchar_size", i32 4}
!1 = !{!"clang version 10.0.0-4ubuntu1 "}
